target datalayout = "e-m:e-p270:32:32-p271:32:32-p272:64:64-i64:64-i128:128-f80:128-n8:16:32:64-S128"
target triple = "x86_64-pc-linux-gnu"

%struct.XML_Memory_Handling_Suite = type { ptr, ptr, ptr }
%struct.XML_ParserStruct = type { ptr, ptr, ptr, %struct.XML_Memory_Handling_Suite, ptr, ptr, ptr, i64, ptr, i64, i8, i32, ptr, ptr, ptr, ptr, ptr, ptr, ptr, ptr, ptr, ptr, ptr, ptr, ptr, ptr, ptr, ptr, ptr, ptr, ptr, ptr, ptr, ptr, ptr, ptr, ptr, ptr, %struct.INIT_ENCODING, ptr, ptr, i8, i8, ptr, ptr, ptr, ptr, %struct.prolog_state, ptr, i32, ptr, ptr, ptr, ptr, ptr, i8, i32, ptr, ptr, ptr, ptr, ptr, ptr, ptr, ptr, ptr, i8, i8, ptr, ptr, ptr, ptr, ptr, ptr, i32, i32, i32, ptr, ptr, i64, i8, %struct.position, %struct.STRING_POOL, %struct.STRING_POOL, ptr, i32, i8, ptr, %struct.XML_ParsingStatus, i64 }
%struct.INIT_ENCODING = type { %struct.encoding, ptr }
%struct.encoding = type { [3 x ptr], [2 x ptr], ptr, ptr, ptr, ptr, ptr, ptr, ptr, ptr, ptr, ptr, i32, i8, i8 }
%struct.prolog_state = type { ptr, i32, i32 }
%struct.position = type { i64, i64 }
%struct.STRING_POOL = type { ptr, ptr, ptr, ptr, ptr, ptr }
%struct.XML_ParsingStatus = type { i32, i8 }

; Function Attrs: nounwind uwtable
define dso_local i64 @XML_GetCurrentLineNumber(ptr noundef %0) #0 {
  %2 = alloca i64, align 8
  %3 = alloca ptr, align 8
  store ptr %0, ptr %3, align 8, !tbaa !13
  %4 = load ptr, ptr %3, align 8, !tbaa !13
  %5 = icmp eq ptr %4, null
  br i1 %5, label %6, label %7

6:                                                ; preds = %1
  store i64 0, ptr %2, align 8
  br label %48

7:                                                ; preds = %1
  %8 = load ptr, ptr %3, align 8, !tbaa !13
  %9 = getelementptr inbounds nuw %struct.XML_ParserStruct, ptr %8, i32 0, i32 50
  %10 = load ptr, ptr %9, align 8, !tbaa !134
  %11 = icmp ne ptr %10, null
  br i1 %11, label %12, label %42

12:                                               ; preds = %7
  %13 = load ptr, ptr %3, align 8, !tbaa !13
  %14 = getelementptr inbounds nuw %struct.XML_ParserStruct, ptr %13, i32 0, i32 50
  %15 = load ptr, ptr %14, align 8, !tbaa !134
  %16 = load ptr, ptr %3, align 8, !tbaa !13
  %17 = getelementptr inbounds nuw %struct.XML_ParserStruct, ptr %16, i32 0, i32 52
  %18 = load ptr, ptr %17, align 8, !tbaa !136
  %19 = icmp uge ptr %15, %18
  br i1 %19, label %20, label %42

20:                                               ; preds = %12
  %21 = load ptr, ptr %3, align 8, !tbaa !13
  %22 = getelementptr inbounds nuw %struct.XML_ParserStruct, ptr %21, i32 0, i32 37
  %23 = load ptr, ptr %22, align 8, !tbaa !201
  %24 = getelementptr inbounds nuw %struct.encoding, ptr %23, i32 0, i32 8
  %25 = load ptr, ptr %24, align 8, !tbaa !202
  %26 = load ptr, ptr %3, align 8, !tbaa !13
  %27 = getelementptr inbounds nuw %struct.XML_ParserStruct, ptr %26, i32 0, i32 37
  %28 = load ptr, ptr %27, align 8, !tbaa !201
  %29 = load ptr, ptr %3, align 8, !tbaa !13
  %30 = getelementptr inbounds nuw %struct.XML_ParserStruct, ptr %29, i32 0, i32 52
  %31 = load ptr, ptr %30, align 8, !tbaa !136
  %32 = load ptr, ptr %3, align 8, !tbaa !13
  %33 = getelementptr inbounds nuw %struct.XML_ParserStruct, ptr %32, i32 0, i32 50
  %34 = load ptr, ptr %33, align 8, !tbaa !134
  %35 = load ptr, ptr %3, align 8, !tbaa !13
  %36 = getelementptr inbounds nuw %struct.XML_ParserStruct, ptr %35, i32 0, i32 81
  call void %25(ptr noundef %28, ptr noundef %31, ptr noundef %34, ptr noundef %36)
  %37 = load ptr, ptr %3, align 8, !tbaa !13
  %38 = getelementptr inbounds nuw %struct.XML_ParserStruct, ptr %37, i32 0, i32 50
  %39 = load ptr, ptr %38, align 8, !tbaa !134
  %40 = load ptr, ptr %3, align 8, !tbaa !13
  %41 = getelementptr inbounds nuw %struct.XML_ParserStruct, ptr %40, i32 0, i32 52
  store ptr %39, ptr %41, align 8, !tbaa !136
  br label %42

42:                                               ; preds = %20, %12, %7
  %43 = load ptr, ptr %3, align 8, !tbaa !13
  %44 = getelementptr inbounds nuw %struct.XML_ParserStruct, ptr %43, i32 0, i32 81
  %45 = getelementptr inbounds nuw %struct.position, ptr %44, i32 0, i32 0
  %46 = load i64, ptr %45, align 8, !tbaa !209
  %47 = add i64 %46, 1
  store i64 %47, ptr %2, align 8
  br label %48

48:                                               ; preds = %42, %6
  %49 = load i64, ptr %2, align 8
  ret i64 %49
}