; Function Attrs: nounwind uwtable
define dso_local i64 @XML_GetCurrentLineNumber(ptr noundef %0) local_unnamed_addr #0 {
  %2 = icmp eq ptr %0, null
  br i1 %2, label %20, label %3

3:                                                ; preds = %1
  %4 = getelementptr inbounds nuw i8, ptr %0, i64 536
  %5 = load ptr, ptr %4, align 8, !tbaa !188
  %.not = icmp eq ptr %5, null
  br i1 %.not, label %16, label %6

6:                                                ; preds = %3
  %7 = getelementptr inbounds nuw i8, ptr %0, i64 552
  %8 = load ptr, ptr %7, align 8, !tbaa !201
  %.not15 = icmp ult ptr %5, %8
  br i1 %.not15, label %16, label %9

9:                                                ; preds = %6
  %10 = getelementptr inbounds nuw i8, ptr %0, i64 304
  %11 = load ptr, ptr %10, align 8, !tbaa !186
  %12 = getelementptr inbounds nuw i8, ptr %11, i64 88
  %13 = load ptr, ptr %12, align 8, !tbaa !206
  %14 = getelementptr inbounds nuw i8, ptr %0, i64 760
  tail call void %13(ptr noundef %11, ptr noundef %8, ptr noundef nonnull %5, ptr noundef nonnull %14) #23
  %15 = load ptr, ptr %4, align 8, !tbaa !188
  store ptr %15, ptr %7, align 8, !tbaa !201
  br label %16

16:                                               ; preds = %9, %6, %3
  %17 = getelementptr inbounds nuw i8, ptr %0, i64 760
  %18 = load i64, ptr %17, align 8, !tbaa !207
  %19 = add i64 %18, 1
  br label %20

20:                                               ; preds = %1, %16
  %.0 = phi i64 [ %19, %16 ], [ 0, %1 ]
  ret i64 %.0
}